Certificate:
    Data:
        Version: 1 (0x0)
        Serial Number: 1 (0x1)
    Signature Algorithm: sha256WithRSAEncryption
        Issuer: C=US, ST=Calfornia, L=San Francisco, O=GitHub, Inc., OU=Example CA, CN=example-ca.octocat
        Validity
            Not Before: Feb  8 20:23:42 2018 GMT
            Not After : Feb  6 20:23:42 2028 GMT
        Subject: C=US, ST=California, L=San Francisco, O=GitHub, Inc., OU=Example CA, CN=localhost
        Subject Public Key Info:
            Public Key Algorithm: rsaEncryption
                Public-Key: (2048 bit)
                Modulus:
                    00:a8:37:e5:dc:89:da:c9:e1:de:89:c1:15:2b:49:
                    d7:dd:2b:72:30:02:6f:bb:8e:0b:99:e2:a1:fc:3a:
                    71:51:4e:2a:24:36:53:92:48:31:fd:09:f9:32:87:
                    42:15:48:81:6a:b3:fd:cf:7d:a6:af:09:3e:82:95:
                    0d:3e:15:8f:5d:11:7c:90:98:e8:1a:8c:17:9f:15:
                    8a:83:4b:35:7e:ac:26:95:be:76:78:c4:75:b4:9e:
                    d5:6c:45:47:77:68:33:0c:fc:b8:a1:4d:8b:0f:6e:
                    69:21:bc:d5:8a:20:41:72:ed:e5:06:04:98:17:53:
                    79:4e:01:98:d5:1d:40:e6:74:64:e0:0b:02:b0:fc:
                    f9:ef:27:a7:02:f7:ef:f7:f0:4f:57:9a:a7:45:72:
                    bd:f7:b8:c5:b2:c2:48:ee:c4:19:8b:64:99:f1:0e:
                    3e:73:79:d2:61:bd:34:8c:6d:b5:75:06:96:2b:3b:
                    43:e3:41:e3:56:86:a0:4a:0a:ac:ee:be:7f:20:18:
                    19:64:69:40:99:63:e5:e2:29:76:00:0b:96:17:79:
                    92:27:37:ad:f9:67:85:f2:bd:61:7d:df:e6:8d:69:
                    54:ad:92:b6:3b:c7:17:9a:24:38:34:dd:ed:52:59:
                    92:5c:bf:9a:59:85:b6:37:7a:a5:8d:58:d2:d8:db:
                    d2:2d
                Exponent: 65537 (0x10001)
    Signature Algorithm: sha256WithRSAEncryption
         ae:2e:68:32:08:2f:40:67:bf:4f:1e:af:ba:08:2b:cb:32:4d:
         0b:03:fd:9a:03:59:fd:da:55:74:22:65:f9:63:2a:69:65:68:
         63:0a:2b:04:4a:fd:7a:c7:f7:be:b8:5a:df:2a:07:6d:1e:48:
         da:5c:f6:79:bc:15:5b:6f:e5:e1:52:f9:28:e5:97:38:0d:cc:
         e0:b9:b3:f6:b9:a0:4c:a6:ab:5d:25:b8:89:03:89:c1:2d:f9:
         cf:07:e9:02:df:95:c1:5c:cc:3a:10:ff:7f:f9:34:cd:0a:72:
         bc:c8:83:cf:a4:53:85:ae:a4:75:fd:dd:2e:67:76:28:4c:80:
         f9:79:98:55:15:84:61:23:ae:50:98:9e:9a:2a:71:f0:fe:84:
         90:09:fb:3f:4e:bd:20:33:44:5b:5e:f1:50:da:5b:f1:b4:e2:
         4d:26:94:b7:8b:39:dc:3c:5e:d6:be:36:b9:dc:13:50:78:7b:
         24:2e:6d:dc:b7:fd:f0:cd:0f:28:86:13:a6:bc:2b:24:94:99:
         6e:38:89:3e:c0:72:a9:2b:a0:83:42:b5:ef:90:1f:d2:f4:a0:
         3e:60:0d:c0:56:ab:57:0a:c6:fd:2b:65:ea:f2:2a:f1:b9:a5:
         30:49:3b:24:7a:e5:cb:25:17:f6:1b:65:29:1d:ca:37:95:a6:
         65:b7:81:7c
-----BEGIN CERTIFICATE-----
MIIDcTCCAlkCAQEwDQYJKoZIhvcNAQELBQAwgYIxCzAJBgNVBAYTAlVTMRIwEAYD
VQQIDAlDYWxmb3JuaWExFjAUBgNVBAcMDVNhbiBGcmFuY2lzY28xFTATBgNVBAoM
DEdpdEh1YiwgSW5jLjETMBEGA1UECwwKRXhhbXBsZSBDQTEbMBkGA1UEAwwSZXhh
bXBsZS1jYS5vY3RvY2F0MB4XDTE4MDIwODIwMjM0MloXDTI4MDIwNjIwMjM0Mlow
ejELMAkGA1UEBhMCVVMxEzARBgNVBAgMCkNhbGlmb3JuaWExFjAUBgNVBAcMDVNh
biBGcmFuY2lzY28xFTATBgNVBAoMDEdpdEh1YiwgSW5jLjETMBEGA1UECwwKRXhh
bXBsZSBDQTESMBAGA1UEAwwJbG9jYWxob3N0MIIBIjANBgkqhkiG9w0BAQEFAAOC
AQ8AMIIBCgKCAQEAqDfl3InayeHeicEVK0nX3StyMAJvu44LmeKh/DpxUU4qJDZT
kkgx/Qn5ModCFUiBarP9z32mrwk+gpUNPhWPXRF8kJjoGowXnxWKg0s1fqwmlb52
eMR1tJ7VbEVHd2gzDPy4oU2LD25pIbzViiBBcu3lBgSYF1N5TgGY1R1A5nRk4AsC
sPz57yenAvfv9/BPV5qnRXK997jFssJI7sQZi2SZ8Q4+c3nSYb00jG21dQaWKztD
40HjVoagSgqs7r5/IBgZZGlAmWPl4il2AAuWF3mSJzet+WeF8r1hfd/mjWlUrZK2
O8cXmiQ4NN3tUlmSXL+aWYW2N3qljVjS2NvSLQIDAQABMA0GCSqGSIb3DQEBCwUA
A4IBAQCuLmgyCC9AZ79PHq+6CCvLMk0LA/2aA1n92lV0ImX5YyppZWhjCisESv16
x/e+uFrfKgdtHkjaXPZ5vBVbb+XhUvko5Zc4DczgubP2uaBMpqtdJbiJA4nBLfnP
B+kC35XBXMw6EP9/+TTNCnK8yIPPpFOFrqR1/d0uZ3YoTID5eZhVFYRhI65QmJ6a
KnHw/oSQCfs/Tr0gM0RbXvFQ2lvxtOJNJpS3izncPF7Wvja53BNQeHskLm3ct/3w
zQ8ohhOmvCsklJluOIk+wHKpK6CDQrXvkB/S9KA+YA3AVqtXCsb9K2Xq8irxuaUw
STskeuXLJRf2G2UpHco3laZlt4F8
-----END CERTIFICATE-----
